target datalayout = "e-m:e-p270:32:32-p271:32:32-p272:64:64-i64:64-i128:128-f80:128-n8:16:32:64-S128"
target triple = "x86_64-unknown-linux-gnu"

%"class.sat::literal" = type { i32 }
%"class.sat::binspr" = type <{ ptr, %class.scoped_ptr.38, i32, i32, %class.vector.39, i32, i32, %class.svector.14, %class.svector.14, %class.svector.26, %class.svector.26, i32, i32, i32, i32, i32, [4 x i32], [5 x i32], [5 x i32], [4 x i8] }>
%class.scoped_ptr.38 = type { ptr }
%class.vector.39 = type { ptr }
%class.svector.14 = type { %class.vector.15 }
%class.vector.15 = type { ptr }
%class.svector.26 = type { %class.vector.27 }
%class.vector.27 = type { ptr }

; Function Attrs: mustprogress nounwind uwtable
define linkonce_odr hidden noundef i32 @_ZNK3sat7literal3varEv(ptr noundef nonnull align 4 dereferenceable(4) %this) #4 comdat align 2 {
entry:
  %this.addr = alloca ptr, align 8
  store ptr %this, ptr %this.addr, align 8
  %this1 = load ptr, ptr %this.addr, align 8
  %m_val = getelementptr inbounds %"class.sat::literal", ptr %this1, i32 0, i32 0
  %0 = load i32, ptr %m_val, align 4
  %shr = lshr i32 %0, 1
  ret i32 %shr
}

; Function Attrs: mustprogress uwtable
define hidden void @_ZN3sat6binspr10g_add_unitENS_7literalES1_(ptr noundef nonnull align 8 dereferenceable(148) %this, i32 %lit1.coerce, i32 %lit2.coerce) #5 align 2 {
entry:
  %lit1 = alloca %"class.sat::literal", align 4
  %lit2 = alloca %"class.sat::literal", align 4
  %this.addr = alloca ptr, align 8
  %coerce.dive = getelementptr inbounds %"class.sat::literal", ptr %lit1, i32 0, i32 0
  store i32 %lit1.coerce, ptr %coerce.dive, align 4
  %coerce.dive1 = getelementptr inbounds %"class.sat::literal", ptr %lit2, i32 0, i32 0
  store i32 %lit2.coerce, ptr %coerce.dive1, align 4
  store ptr %this, ptr %this.addr, align 8
  %this2 = load ptr, ptr %this.addr, align 8
  %call = call noundef i32 @_ZNK3sat7literal3varEv(ptr noundef nonnull align 4 dereferenceable(4) %lit1)
  %call3 = call noundef i32 @_ZNK3sat7literal3varEv(ptr noundef nonnull align 4 dereferenceable(4) %lit2)
  %cmp = icmp ult i32 %call, %call3
  br i1 %cmp, label %if.then, label %if.else

if.then:                                          ; preds = %entry
  %m_state = getelementptr inbounds %"class.sat::binspr", ptr %this2, i32 0, i32 11
  %0 = load i32, ptr %m_state, align 8
  %and = and i32 %0, 2
  store i32 %and, ptr %m_state, align 8
  br label %if.end

if.else:                                          ; preds = %entry
  %m_state4 = getelementptr inbounds %"class.sat::binspr", ptr %this2, i32 0, i32 11
  %1 = load i32, ptr %m_state4, align 8
  %and5 = and i32 %1, 4
  store i32 %and5, ptr %m_state4, align 8
  br label %if.end

if.end:                                           ; preds = %if.else, %if.then
  ret void
}