; Function Attrs: mustprogress nofree norecurse nosync nounwind willreturn memory(argmem: readwrite) uwtable
define hidden void @_ZN3sat6binspr10g_add_unitENS_7literalES1_(ptr nocapture noundef nonnull align 8 dereferenceable(148) %this, i32 %lit1.coerce, i32 %lit2.coerce) local_unnamed_addr #10 align 2 {
entry:
  %shr.i = lshr i32 %lit1.coerce, 1
  %shr.i1 = lshr i32 %lit2.coerce, 1
  %cmp = icmp ult i32 %shr.i, %shr.i1
  %m_state = getelementptr inbounds i8, ptr %this, i64 72
  %0 = load i32, ptr %m_state, align 8
  %. = select i1 %cmp, i32 2, i32 4
  %and5 = and i32 %0, %.
  store i32 %and5, ptr %m_state, align 8
  ret void
}